target datalayout = "e-m:e-p270:32:32-p271:32:32-p272:64:64-i64:64-i128:128-f80:128-n8:16:32:64-S128"
target triple = "x86_64-pc-linux-gnu"

%struct._generic_SUNMatrix = type { ptr, ptr, ptr }
%struct._generic_SUNMatrix_Ops = type { ptr, ptr, ptr, ptr, ptr, ptr, ptr, ptr, ptr, ptr }
%struct._SUNMatrixContent_Band = type { i64, i64, i64, i64, i64, i64, ptr, i64, ptr }

; Function Attrs: nounwind uwtable
define ptr @SUNBandMatrixStorage(i64 noundef %0, i64 noundef %1, i64 noundef %2, i64 noundef %3, ptr noundef %4) #0 {
  %6 = alloca i64, align 8
  %7 = alloca i64, align 8
  %8 = alloca i64, align 8
  %9 = alloca i64, align 8
  %10 = alloca ptr, align 8
  %11 = alloca ptr, align 8
  %12 = alloca ptr, align 8
  %13 = alloca ptr, align 8
  %14 = alloca i64, align 8
  %15 = alloca i64, align 8
  store i64 %0, ptr %6, align 8, !tbaa !3
  store i64 %1, ptr %7, align 8, !tbaa !3
  store i64 %2, ptr %8, align 8, !tbaa !3
  store i64 %3, ptr %9, align 8, !tbaa !3
  store ptr %4, ptr %10, align 8, !tbaa !7
  call void @llvm.lifetime.start.p0(i64 8, ptr %11) #8
  %16 = load ptr, ptr %10, align 8, !tbaa !7
  store ptr %16, ptr %11, align 8, !tbaa !7
  call void @llvm.lifetime.start.p0(i64 8, ptr %12) #8
  call void @llvm.lifetime.start.p0(i64 8, ptr %13) #8
  call void @llvm.lifetime.start.p0(i64 8, ptr %14) #8
  call void @llvm.lifetime.start.p0(i64 8, ptr %15) #8
  store ptr null, ptr %12, align 8, !tbaa !10
  %17 = load ptr, ptr %10, align 8, !tbaa !7
  %18 = call ptr @SUNMatNewEmpty(ptr noundef %17)
  store ptr %18, ptr %12, align 8, !tbaa !10
  %19 = load ptr, ptr %12, align 8, !tbaa !10
  %20 = getelementptr inbounds nuw %struct._generic_SUNMatrix, ptr %19, i32 0, i32 1
  %21 = load ptr, ptr %20, align 8, !tbaa !12
  %22 = getelementptr inbounds nuw %struct._generic_SUNMatrix_Ops, ptr %21, i32 0, i32 0
  store ptr @SUNMatGetID_Band, ptr %22, align 8, !tbaa !15
  %23 = load ptr, ptr %12, align 8, !tbaa !10
  %24 = getelementptr inbounds nuw %struct._generic_SUNMatrix, ptr %23, i32 0, i32 1
  %25 = load ptr, ptr %24, align 8, !tbaa !12
  %26 = getelementptr inbounds nuw %struct._generic_SUNMatrix_Ops, ptr %25, i32 0, i32 1
  store ptr @SUNMatClone_Band, ptr %26, align 8, !tbaa !17
  %27 = load ptr, ptr %12, align 8, !tbaa !10
  %28 = getelementptr inbounds nuw %struct._generic_SUNMatrix, ptr %27, i32 0, i32 1
  %29 = load ptr, ptr %28, align 8, !tbaa !12
  %30 = getelementptr inbounds nuw %struct._generic_SUNMatrix_Ops, ptr %29, i32 0, i32 2
  store ptr @SUNMatDestroy_Band, ptr %30, align 8, !tbaa !18
  %31 = load ptr, ptr %12, align 8, !tbaa !10
  %32 = getelementptr inbounds nuw %struct._generic_SUNMatrix, ptr %31, i32 0, i32 1
  %33 = load ptr, ptr %32, align 8, !tbaa !12
  %34 = getelementptr inbounds nuw %struct._generic_SUNMatrix_Ops, ptr %33, i32 0, i32 3
  store ptr @SUNMatZero_Band, ptr %34, align 8, !tbaa !19
  %35 = load ptr, ptr %12, align 8, !tbaa !10
  %36 = getelementptr inbounds nuw %struct._generic_SUNMatrix, ptr %35, i32 0, i32 1
  %37 = load ptr, ptr %36, align 8, !tbaa !12
  %38 = getelementptr inbounds nuw %struct._generic_SUNMatrix_Ops, ptr %37, i32 0, i32 4
  store ptr @SUNMatCopy_Band, ptr %38, align 8, !tbaa !20
  %39 = load ptr, ptr %12, align 8, !tbaa !10
  %40 = getelementptr inbounds nuw %struct._generic_SUNMatrix, ptr %39, i32 0, i32 1
  %41 = load ptr, ptr %40, align 8, !tbaa !12
  %42 = getelementptr inbounds nuw %struct._generic_SUNMatrix_Ops, ptr %41, i32 0, i32 5
  store ptr @SUNMatScaleAdd_Band, ptr %42, align 8, !tbaa !21
  %43 = load ptr, ptr %12, align 8, !tbaa !10
  %44 = getelementptr inbounds nuw %struct._generic_SUNMatrix, ptr %43, i32 0, i32 1
  %45 = load ptr, ptr %44, align 8, !tbaa !12
  %46 = getelementptr inbounds nuw %struct._generic_SUNMatrix_Ops, ptr %45, i32 0, i32 6
  store ptr @SUNMatScaleAddI_Band, ptr %46, align 8, !tbaa !22
  %47 = load ptr, ptr %12, align 8, !tbaa !10
  %48 = getelementptr inbounds nuw %struct._generic_SUNMatrix, ptr %47, i32 0, i32 1
  %49 = load ptr, ptr %48, align 8, !tbaa !12
  %50 = getelementptr inbounds nuw %struct._generic_SUNMatrix_Ops, ptr %49, i32 0, i32 8
  store ptr @SUNMatMatvec_Band, ptr %50, align 8, !tbaa !23
  %51 = load ptr, ptr %12, align 8, !tbaa !10
  %52 = getelementptr inbounds nuw %struct._generic_SUNMatrix, ptr %51, i32 0, i32 1
  %53 = load ptr, ptr %52, align 8, !tbaa !12
  %54 = getelementptr inbounds nuw %struct._generic_SUNMatrix_Ops, ptr %53, i32 0, i32 9
  store ptr @SUNMatSpace_Band, ptr %54, align 8, !tbaa !24
  store ptr null, ptr %13, align 8, !tbaa !25
  %55 = call noalias ptr @malloc(i64 noundef 72) #9
  store ptr %55, ptr %13, align 8, !tbaa !25
  %56 = load ptr, ptr %13, align 8, !tbaa !25
  %57 = load ptr, ptr %12, align 8, !tbaa !10
  %58 = getelementptr inbounds nuw %struct._generic_SUNMatrix, ptr %57, i32 0, i32 0
  store ptr %56, ptr %58, align 8, !tbaa !27
  %59 = load i64, ptr %9, align 8, !tbaa !3
  %60 = load i64, ptr %8, align 8, !tbaa !3
  %61 = add nsw i64 %59, %60
  %62 = add nsw i64 %61, 1
  store i64 %62, ptr %15, align 8, !tbaa !3
  %63 = load i64, ptr %6, align 8, !tbaa !3
  %64 = load ptr, ptr %13, align 8, !tbaa !25
  %65 = getelementptr inbounds nuw %struct._SUNMatrixContent_Band, ptr %64, i32 0, i32 0
  store i64 %63, ptr %65, align 8, !tbaa !28
  %66 = load i64, ptr %6, align 8, !tbaa !3
  %67 = load ptr, ptr %13, align 8, !tbaa !25
  %68 = getelementptr inbounds nuw %struct._SUNMatrixContent_Band, ptr %67, i32 0, i32 1
  store i64 %66, ptr %68, align 8, !tbaa !32
  %69 = load i64, ptr %7, align 8, !tbaa !3
  %70 = load ptr, ptr %13, align 8, !tbaa !25
  %71 = getelementptr inbounds nuw %struct._SUNMatrixContent_Band, ptr %70, i32 0, i32 3
  store i64 %69, ptr %71, align 8, !tbaa !33
  %72 = load i64, ptr %8, align 8, !tbaa !3
  %73 = load ptr, ptr %13, align 8, !tbaa !25
  %74 = getelementptr inbounds nuw %struct._SUNMatrixContent_Band, ptr %73, i32 0, i32 4
  store i64 %72, ptr %74, align 8, !tbaa !34
  %75 = load i64, ptr %9, align 8, !tbaa !3
  %76 = load ptr, ptr %13, align 8, !tbaa !25
  %77 = getelementptr inbounds nuw %struct._SUNMatrixContent_Band, ptr %76, i32 0, i32 5
  store i64 %75, ptr %77, align 8, !tbaa !35
  %78 = load i64, ptr %15, align 8, !tbaa !3
  %79 = load ptr, ptr %13, align 8, !tbaa !25
  %80 = getelementptr inbounds nuw %struct._SUNMatrixContent_Band, ptr %79, i32 0, i32 2
  store i64 %78, ptr %80, align 8, !tbaa !36
  %81 = load i64, ptr %6, align 8, !tbaa !3
  %82 = load i64, ptr %15, align 8, !tbaa !3
  %83 = mul nsw i64 %81, %82
  %84 = load ptr, ptr %13, align 8, !tbaa !25
  %85 = getelementptr inbounds nuw %struct._SUNMatrixContent_Band, ptr %84, i32 0, i32 7
  store i64 %83, ptr %85, align 8, !tbaa !37
  %86 = load ptr, ptr %13, align 8, !tbaa !25
  %87 = getelementptr inbounds nuw %struct._SUNMatrixContent_Band, ptr %86, i32 0, i32 6
  store ptr null, ptr %87, align 8, !tbaa !38
  %88 = load ptr, ptr %13, align 8, !tbaa !25
  %89 = getelementptr inbounds nuw %struct._SUNMatrixContent_Band, ptr %88, i32 0, i32 8
  store ptr null, ptr %89, align 8, !tbaa !39
  %90 = load i64, ptr %6, align 8, !tbaa !3
  %91 = load i64, ptr %15, align 8, !tbaa !3
  %92 = mul nsw i64 %90, %91
  %93 = call noalias ptr @calloc(i64 noundef %92, i64 noundef 8) #10
  %94 = load ptr, ptr %13, align 8, !tbaa !25
  %95 = getelementptr inbounds nuw %struct._SUNMatrixContent_Band, ptr %94, i32 0, i32 6
  store ptr %93, ptr %95, align 8, !tbaa !38
  %96 = load i64, ptr %6, align 8, !tbaa !3
  %97 = mul i64 %96, 8
  %98 = call noalias ptr @malloc(i64 noundef %97) #9
  %99 = load ptr, ptr %13, align 8, !tbaa !25
  %100 = getelementptr inbounds nuw %struct._SUNMatrixContent_Band, ptr %99, i32 0, i32 8
  store ptr %98, ptr %100, align 8, !tbaa !39
  store i64 0, ptr %14, align 8, !tbaa !3
  br label %101

101:                                              ; preds = %118, %5
  %102 = load i64, ptr %14, align 8, !tbaa !3
  %103 = load i64, ptr %6, align 8, !tbaa !3
  %104 = icmp slt i64 %102, %103
  br i1 %104, label %105, label %121

105:                                              ; preds = %101
  %106 = load ptr, ptr %13, align 8, !tbaa !25
  %107 = getelementptr inbounds nuw %struct._SUNMatrixContent_Band, ptr %106, i32 0, i32 6
  %108 = load ptr, ptr %107, align 8, !tbaa !38
  %109 = load i64, ptr %14, align 8, !tbaa !3
  %110 = load i64, ptr %15, align 8, !tbaa !3
  %111 = mul nsw i64 %109, %110
  %112 = getelementptr inbounds double, ptr %108, i64 %111
  %113 = load ptr, ptr %13, align 8, !tbaa !25
  %114 = getelementptr inbounds nuw %struct._SUNMatrixContent_Band, ptr %113, i32 0, i32 8
  %115 = load ptr, ptr %114, align 8, !tbaa !39
  %116 = load i64, ptr %14, align 8, !tbaa !3
  %117 = getelementptr inbounds ptr, ptr %115, i64 %116
  store ptr %112, ptr %117, align 8, !tbaa !40
  br label %118

118:                                              ; preds = %105
  %119 = load i64, ptr %14, align 8, !tbaa !3
  %120 = add nsw i64 %119, 1
  store i64 %120, ptr %14, align 8, !tbaa !3
  br label %101

121:                                              ; preds = %101
  %122 = load ptr, ptr %12, align 8, !tbaa !10
  call void @llvm.lifetime.end.p0(i64 8, ptr %15) #8
  call void @llvm.lifetime.end.p0(i64 8, ptr %14) #8
  call void @llvm.lifetime.end.p0(i64 8, ptr %13) #8
  call void @llvm.lifetime.end.p0(i64 8, ptr %12) #8
  call void @llvm.lifetime.end.p0(i64 8, ptr %11) #8
  ret ptr %122
}

; Function Attrs: nounwind uwtable
define ptr @SUNMatClone_Band(ptr noundef %0) #0 {
  %2 = alloca ptr, align 8
  %3 = alloca ptr, align 8
  %4 = alloca ptr, align 8
  store ptr %0, ptr %2, align 8, !tbaa !10
  call void @llvm.lifetime.start.p0(i64 8, ptr %3) #8
  %5 = load ptr, ptr %2, align 8, !tbaa !10
  %6 = getelementptr inbounds nuw %struct._generic_SUNMatrix, ptr %5, i32 0, i32 2
  %7 = load ptr, ptr %6, align 8, !tbaa !41
  store ptr %7, ptr %3, align 8, !tbaa !7
  call void @llvm.lifetime.start.p0(i64 8, ptr %4) #8
  %8 = load ptr, ptr %2, align 8, !tbaa !10
  %9 = getelementptr inbounds nuw %struct._generic_SUNMatrix, ptr %8, i32 0, i32 0
  %10 = load ptr, ptr %9, align 8, !tbaa !27
  %11 = getelementptr inbounds nuw %struct._SUNMatrixContent_Band, ptr %10, i32 0, i32 1
  %12 = load i64, ptr %11, align 8, !tbaa !32
  %13 = load ptr, ptr %2, align 8, !tbaa !10
  %14 = getelementptr inbounds nuw %struct._generic_SUNMatrix, ptr %13, i32 0, i32 0
  %15 = load ptr, ptr %14, align 8, !tbaa !27
  %16 = getelementptr inbounds nuw %struct._SUNMatrixContent_Band, ptr %15, i32 0, i32 3
  %17 = load i64, ptr %16, align 8, !tbaa !33
  %18 = load ptr, ptr %2, align 8, !tbaa !10
  %19 = getelementptr inbounds nuw %struct._generic_SUNMatrix, ptr %18, i32 0, i32 0
  %20 = load ptr, ptr %19, align 8, !tbaa !27
  %21 = getelementptr inbounds nuw %struct._SUNMatrixContent_Band, ptr %20, i32 0, i32 4
  %22 = load i64, ptr %21, align 8, !tbaa !34
  %23 = load ptr, ptr %2, align 8, !tbaa !10
  %24 = getelementptr inbounds nuw %struct._generic_SUNMatrix, ptr %23, i32 0, i32 0
  %25 = load ptr, ptr %24, align 8, !tbaa !27
  %26 = getelementptr inbounds nuw %struct._SUNMatrixContent_Band, ptr %25, i32 0, i32 5
  %27 = load i64, ptr %26, align 8, !tbaa !35
  %28 = load ptr, ptr %2, align 8, !tbaa !10
  %29 = getelementptr inbounds nuw %struct._generic_SUNMatrix, ptr %28, i32 0, i32 2
  %30 = load ptr, ptr %29, align 8, !tbaa !41
  %31 = call ptr @SUNBandMatrixStorage(i64 noundef %12, i64 noundef %17, i64 noundef %22, i64 noundef %27, ptr noundef %30)
  store ptr %31, ptr %4, align 8, !tbaa !10
  %32 = load ptr, ptr %4, align 8, !tbaa !10
  call void @llvm.lifetime.end.p0(i64 8, ptr %4) #8
  call void @llvm.lifetime.end.p0(i64 8, ptr %3) #8
  ret ptr %32
}