; Function Attrs: nounwind uwtable
define noundef ptr @SUNMatClone_Band(ptr noundef readonly captures(none) %0) #0 {
  %2 = getelementptr inbounds nuw i8, ptr %0, i64 16
  %3 = load ptr, ptr %0, align 8, !tbaa !20
  %4 = getelementptr inbounds nuw i8, ptr %3, i64 8
  %5 = load i64, ptr %4, align 8, !tbaa !26
  %6 = getelementptr inbounds nuw i8, ptr %3, i64 24
  %7 = load i64, ptr %6, align 8, !tbaa !27
  %8 = getelementptr inbounds nuw i8, ptr %3, i64 32
  %9 = load i64, ptr %8, align 8, !tbaa !28
  %10 = getelementptr inbounds nuw i8, ptr %3, i64 40
  %11 = load i64, ptr %10, align 8, !tbaa !29
  %12 = load ptr, ptr %2, align 8, !tbaa !35
  %13 = tail call ptr @SUNMatNewEmpty(ptr noundef %12) #18
  %14 = getelementptr inbounds nuw i8, ptr %13, i64 8
  %15 = load ptr, ptr %14, align 8, !tbaa !3
  store ptr @SUNMatGetID_Band, ptr %15, align 8, !tbaa !10
  %16 = getelementptr inbounds nuw i8, ptr %15, i64 8
  store ptr @SUNMatClone_Band, ptr %16, align 8, !tbaa !12
  %17 = getelementptr inbounds nuw i8, ptr %15, i64 16
  store ptr @SUNMatDestroy_Band, ptr %17, align 8, !tbaa !13
  %18 = getelementptr inbounds nuw i8, ptr %15, i64 24
  store ptr @SUNMatZero_Band, ptr %18, align 8, !tbaa !14
  %19 = getelementptr inbounds nuw i8, ptr %15, i64 32
  store ptr @SUNMatCopy_Band, ptr %19, align 8, !tbaa !15
  %20 = getelementptr inbounds nuw i8, ptr %15, i64 40
  store ptr @SUNMatScaleAdd_Band, ptr %20, align 8, !tbaa !16
  %21 = getelementptr inbounds nuw i8, ptr %15, i64 48
  store ptr @SUNMatScaleAddI_Band, ptr %21, align 8, !tbaa !17
  %22 = getelementptr inbounds nuw i8, ptr %15, i64 64
  store ptr @SUNMatMatvec_Band, ptr %22, align 8, !tbaa !18
  %23 = getelementptr inbounds nuw i8, ptr %15, i64 72
  store ptr @SUNMatSpace_Band, ptr %23, align 8, !tbaa !19
  %24 = tail call noalias dereferenceable_or_null(72) ptr @malloc(i64 noundef 72) #19
  store ptr %24, ptr %13, align 8, !tbaa !20
  %25 = add i64 %9, 1
  %26 = add i64 %25, %11
  store i64 %5, ptr %24, align 8, !tbaa !21
  %27 = getelementptr inbounds nuw i8, ptr %24, i64 8
  store i64 %5, ptr %27, align 8, !tbaa !26
  %28 = getelementptr inbounds nuw i8, ptr %24, i64 24
  store i64 %7, ptr %28, align 8, !tbaa !27
  %29 = getelementptr inbounds nuw i8, ptr %24, i64 32
  store i64 %9, ptr %29, align 8, !tbaa !28
  %30 = getelementptr inbounds nuw i8, ptr %24, i64 40
  store i64 %11, ptr %30, align 8, !tbaa !29
  %31 = getelementptr inbounds nuw i8, ptr %24, i64 16
  store i64 %26, ptr %31, align 8, !tbaa !30
  %32 = mul nsw i64 %26, %5
  %33 = getelementptr inbounds nuw i8, ptr %24, i64 56
  store i64 %32, ptr %33, align 8, !tbaa !31
  %34 = getelementptr inbounds nuw i8, ptr %24, i64 48
  %35 = getelementptr inbounds nuw i8, ptr %24, i64 64
  %36 = tail call noalias ptr @calloc(i64 noundef %32, i64 noundef 8) #20
  store ptr %36, ptr %34, align 8, !tbaa !32
  %37 = shl i64 %5, 3
  %38 = tail call noalias ptr @malloc(i64 noundef %37) #19
  store ptr %38, ptr %35, align 8, !tbaa !33
  %39 = icmp sgt i64 %5, 0
  br i1 %39, label %.lr.ph.i, label %SUNBandMatrixStorage.exit

.lr.ph.i:                                         ; preds = %1, %.lr.ph.i
  %.045.i = phi i64 [ %43, %.lr.ph.i ], [ 0, %1 ]
  %40 = mul nsw i64 %.045.i, %26
  %41 = getelementptr inbounds double, ptr %36, i64 %40
  %42 = getelementptr inbounds nuw ptr, ptr %38, i64 %.045.i
  store ptr %41, ptr %42, align 8, !tbaa !34
  %43 = add nuw nsw i64 %.045.i, 1
  %exitcond.not.i = icmp eq i64 %43, %5
  br i1 %exitcond.not.i, label %SUNBandMatrixStorage.exit, label %.lr.ph.i

SUNBandMatrixStorage.exit:                        ; preds = %.lr.ph.i, %1
  ret ptr %13
}